; Function Attrs: mustprogress uwtable
define void @_ZN8QuantLib15CPICouponPricer10initializeERKNS_15InflationCouponE(ptr noundef nonnull align 8 dereferenceable(72) %this, ptr noundef nonnull align 8 dereferenceable(160) %coupon) unnamed_addr #8 align 2 {
entry:
  %0 = tail call ptr @__dynamic_cast(ptr nonnull %coupon, ptr nonnull @_ZTIN8QuantLib15InflationCouponE, ptr nonnull @_ZTIN8QuantLib9CPICouponE, i64 0) #27
  %coupon_ = getelementptr inbounds nuw i8, ptr %this, i64 48
  store ptr %0, ptr %coupon_, align 8, !tbaa !91
  %fixedRate_.i = getelementptr inbounds nuw i8, ptr %0, i64 168
  %1 = load double, ptr %fixedRate_.i, align 8, !tbaa !99
  %gearing_ = getelementptr inbounds nuw i8, ptr %this, i64 56
  store double %1, ptr %gearing_, align 8, !tbaa !72
  %vtable = load ptr, ptr %0, align 8, !tbaa !35
  %vfn = getelementptr inbounds i8, ptr %vtable, i64 16
  %2 = load ptr, ptr %vfn, align 8
  %call4 = tail call i64 %2(ptr noundef nonnull align 8 dereferenceable(88) %0)
  %paymentDate_ = getelementptr inbounds nuw i8, ptr %this, i64 8
  store i64 %call4, ptr %paymentDate_, align 8, !tbaa !30
  %discount_ = getelementptr inbounds nuw i8, ptr %this, i64 64
  store double 1.000000e+00, ptr %discount_, align 8, !tbaa !90
  %nominalTermStructure_ = getelementptr inbounds nuw i8, ptr %this, i64 32
  %3 = load ptr, ptr %nominalTermStructure_, align 8, !tbaa !39
  %cmp.not.i.i = icmp eq ptr %3, null
  br i1 %cmp.not.i.i, label %cond.false.i.i, label %_ZNK8QuantLib6HandleINS_18YieldTermStructureEE5emptyEv.exit, !prof !66

cond.false.i.i:                                   ; preds = %entry
  tail call void @_ZN5boost16assertion_failedEPKcS1_S1_l(ptr noundef nonnull @.str.12, ptr noundef nonnull @__PRETTY_FUNCTION__._ZNK5boost10shared_ptrIN8QuantLib6HandleINS1_18YieldTermStructureEE4LinkEEptEv, ptr noundef nonnull @.str.13, i64 noundef 784)
  %.pre.i.i = load ptr, ptr %nominalTermStructure_, align 8, !tbaa !39
  br label %_ZNK8QuantLib6HandleINS_18YieldTermStructureEE5emptyEv.exit

_ZNK8QuantLib6HandleINS_18YieldTermStructureEE5emptyEv.exit: ; preds = %entry, %cond.false.i.i
  %4 = phi ptr [ %3, %entry ], [ %.pre.i.i, %cond.false.i.i ]
  %h_.i.i = getelementptr inbounds nuw i8, ptr %4, i64 112
  %5 = load ptr, ptr %h_.i.i, align 8, !tbaa !111
  %cmp.i.i.i = icmp eq ptr %5, null
  br i1 %cmp.i.i.i, label %if.end24.sink.split, label %if.else

if.else:                                          ; preds = %_ZNK8QuantLib6HandleINS_18YieldTermStructureEE5emptyEv.exit
  %call11 = tail call noundef nonnull align 8 dereferenceable(16) ptr @_ZNK8QuantLib6HandleINS_18YieldTermStructureEEptEv(ptr noundef nonnull align 8 dereferenceable(16) %nominalTermStructure_)
  %6 = load ptr, ptr %call11, align 8, !tbaa !111
  %cmp.not.i = icmp eq ptr %6, null
  br i1 %cmp.not.i, label %cond.false.i, label %_ZNK5boost10shared_ptrIN8QuantLib18YieldTermStructureEEptEv.exit, !prof !66

cond.false.i:                                     ; preds = %if.else
  tail call void @_ZN5boost16assertion_failedEPKcS1_S1_l(ptr noundef nonnull @.str.12, ptr noundef nonnull @__PRETTY_FUNCTION__._ZNK5boost10shared_ptrIN8QuantLib18YieldTermStructureEEptEv, ptr noundef nonnull @.str.13, i64 noundef 784)
  %.pre.i = load ptr, ptr %call11, align 8, !tbaa !111
  br label %_ZNK5boost10shared_ptrIN8QuantLib18YieldTermStructureEEptEv.exit

_ZNK5boost10shared_ptrIN8QuantLib18YieldTermStructureEEptEv.exit: ; preds = %if.else, %cond.false.i
  %7 = phi ptr [ %6, %if.else ], [ %.pre.i, %cond.false.i ]
  %vtable13 = load ptr, ptr %7, align 8, !tbaa !35
  %vfn14 = getelementptr inbounds i8, ptr %vtable13, i64 40
  %8 = load ptr, ptr %vfn14, align 8
  %call15 = tail call noundef nonnull align 8 dereferenceable(8) ptr %8(ptr noundef nonnull align 8 dereferenceable(64) %7)
  %9 = load i64, ptr %paymentDate_, align 8, !tbaa !92
  %10 = load i64, ptr %call15, align 8, !tbaa !92
  %cmp.i = icmp sgt i64 %9, %10
  br i1 %cmp.i, label %if.then17, label %if.end24

if.then17:                                        ; preds = %_ZNK5boost10shared_ptrIN8QuantLib18YieldTermStructureEEptEv.exit
  %call19 = tail call noundef nonnull align 8 dereferenceable(16) ptr @_ZNK8QuantLib6HandleINS_18YieldTermStructureEEptEv(ptr noundef nonnull align 8 dereferenceable(16) %nominalTermStructure_)
  %11 = load ptr, ptr %call19, align 8, !tbaa !111
  %cmp.not.i1 = icmp eq ptr %11, null
  br i1 %cmp.not.i1, label %cond.false.i2, label %_ZNK5boost10shared_ptrIN8QuantLib18YieldTermStructureEEptEv.exit4, !prof !66

cond.false.i2:                                    ; preds = %if.then17
  tail call void @_ZN5boost16assertion_failedEPKcS1_S1_l(ptr noundef nonnull @.str.12, ptr noundef nonnull @__PRETTY_FUNCTION__._ZNK5boost10shared_ptrIN8QuantLib18YieldTermStructureEEptEv, ptr noundef nonnull @.str.13, i64 noundef 784)
  %.pre.i3 = load ptr, ptr %call19, align 8, !tbaa !111
  br label %_ZNK5boost10shared_ptrIN8QuantLib18YieldTermStructureEEptEv.exit4

_ZNK5boost10shared_ptrIN8QuantLib18YieldTermStructureEEptEv.exit4: ; preds = %if.then17, %cond.false.i2
  %12 = phi ptr [ %11, %if.then17 ], [ %.pre.i3, %cond.false.i2 ]
  %call.i = tail call noundef double @_ZNK8QuantLib13TermStructure17timeFromReferenceERKNS_4DateE(ptr noundef nonnull align 8 dereferenceable(64) %12, ptr noundef nonnull align 8 dereferenceable(8) %paymentDate_)
  %call2.i = tail call noundef double @_ZNK8QuantLib18YieldTermStructure8discountEdb(ptr noundef nonnull align 8 dereferenceable(152) %12, double noundef %call.i, i1 noundef zeroext false)
  br label %if.end24.sink.split

if.end24.sink.split:                              ; preds = %_ZNK8QuantLib6HandleINS_18YieldTermStructureEE5emptyEv.exit, %_ZNK5boost10shared_ptrIN8QuantLib18YieldTermStructureEEptEv.exit4
  %call2.i.sink = phi double [ %call2.i, %_ZNK5boost10shared_ptrIN8QuantLib18YieldTermStructureEEptEv.exit4 ], [ 0x47EFFFFFE0000000, %_ZNK8QuantLib6HandleINS_18YieldTermStructureEE5emptyEv.exit ]
  store double %call2.i.sink, ptr %discount_, align 8, !tbaa !90
  br label %if.end24

if.end24:                                         ; preds = %if.end24.sink.split, %_ZNK5boost10shared_ptrIN8QuantLib18YieldTermStructureEEptEv.exit
  ret void
}